#include <math.h>
#include <stdio.h>
#include <stdlib.h>
#include <string.h>



int main()
{    int n,k,m,i,j,t,s;
     int a[100][100];
     scanf("%d",&k);
     for(t=0;t<k;t++){
		 scanf("%d %d",&m,&n);
		 s=0;
		 for(i=0;i<m;i++){
		   for(j=0;j<n;j++){
                     scanf("%d",&a[i][j]);
		   if(i==0||i==m-1){
		   s=s+a[i][j];}
		   if((j==0||j==n-1)&&i!=0&&i!=m-1){
		   s=s+a[i][j];}
		   }
		 }
    printf("%d\n",s);
}
	return 0;
}
