; ModuleID = '6/215.c'
source_filename = "6/215.c"
target datalayout = "e-m:e-p270:32:32-p271:32:32-p272:64:64-i64:64-f80:128-n8:16:32:64-S128"
target triple = "x86_64-pc-linux-gnu"

@.str = private unnamed_addr constant [3 x i8] c"%d\00", align 1
@.str.1 = private unnamed_addr constant [6 x i8] c"%d %d\00", align 1
@.str.2 = private unnamed_addr constant [4 x i8] c"%d\0A\00", align 1

; Function Attrs: noinline nounwind uwtable
define dso_local i32 @main() #0 {
  %1 = alloca i32, align 4
  %2 = alloca i32, align 4
  %3 = alloca i32, align 4
  %4 = alloca i32, align 4
  %5 = alloca i32, align 4
  %6 = alloca i32, align 4
  %7 = alloca i32, align 4
  %8 = alloca i32, align 4
  %9 = alloca [100 x [100 x i32]], align 16
  store i32 0, i32* %1, align 4
  %10 = call i32 (i8*, ...) @__isoc99_scanf(i8* getelementptr inbounds ([3 x i8], [3 x i8]* @.str, i64 0, i64 0), i32* %3)
  store i32 0, i32* %7, align 4
  br label %11

11:                                               ; preds = %88, %0
  %12 = load i32, i32* %7, align 4
  %13 = load i32, i32* %3, align 4
  %14 = icmp slt i32 %12, %13
  br i1 %14, label %15, label %91

15:                                               ; preds = %11
  %16 = call i32 (i8*, ...) @__isoc99_scanf(i8* getelementptr inbounds ([6 x i8], [6 x i8]* @.str.1, i64 0, i64 0), i32* %4, i32* %2)
  store i32 0, i32* %8, align 4
  store i32 0, i32* %5, align 4
  br label %17

17:                                               ; preds = %82, %15
  %18 = load i32, i32* %5, align 4
  %19 = load i32, i32* %4, align 4
  %20 = icmp slt i32 %18, %19
  br i1 %20, label %21, label %85

21:                                               ; preds = %17
  store i32 0, i32* %6, align 4
  br label %22

22:                                               ; preds = %78, %21
  %23 = load i32, i32* %6, align 4
  %24 = load i32, i32* %2, align 4
  %25 = icmp slt i32 %23, %24
  br i1 %25, label %26, label %81

26:                                               ; preds = %22
  %27 = load i32, i32* %5, align 4
  %28 = sext i32 %27 to i64
  %29 = getelementptr inbounds [100 x [100 x i32]], [100 x [100 x i32]]* %9, i64 0, i64 %28
  %30 = load i32, i32* %6, align 4
  %31 = sext i32 %30 to i64
  %32 = getelementptr inbounds [100 x i32], [100 x i32]* %29, i64 0, i64 %31
  %33 = call i32 (i8*, ...) @__isoc99_scanf(i8* getelementptr inbounds ([3 x i8], [3 x i8]* @.str, i64 0, i64 0), i32* %32)
  %34 = load i32, i32* %5, align 4
  %35 = icmp eq i32 %34, 0
  br i1 %35, label %41, label %36

36:                                               ; preds = %26
  %37 = load i32, i32* %5, align 4
  %38 = load i32, i32* %4, align 4
  %39 = sub nsw i32 %38, 1
  %40 = icmp eq i32 %37, %39
  br i1 %40, label %41, label %51

41:                                               ; preds = %36, %26
  %42 = load i32, i32* %8, align 4
  %43 = load i32, i32* %5, align 4
  %44 = sext i32 %43 to i64
  %45 = getelementptr inbounds [100 x [100 x i32]], [100 x [100 x i32]]* %9, i64 0, i64 %44
  %46 = load i32, i32* %6, align 4
  %47 = sext i32 %46 to i64
  %48 = getelementptr inbounds [100 x i32], [100 x i32]* %45, i64 0, i64 %47
  %49 = load i32, i32* %48, align 4
  %50 = add nsw i32 %42, %49
  store i32 %50, i32* %8, align 4
  br label %51

51:                                               ; preds = %41, %36
  %52 = load i32, i32* %6, align 4
  %53 = icmp eq i32 %52, 0
  br i1 %53, label %59, label %54

54:                                               ; preds = %51
  %55 = load i32, i32* %6, align 4
  %56 = load i32, i32* %2, align 4
  %57 = sub nsw i32 %56, 1
  %58 = icmp eq i32 %55, %57
  br i1 %58, label %59, label %77

59:                                               ; preds = %54, %51
  %60 = load i32, i32* %5, align 4
  %61 = icmp ne i32 %60, 0
  br i1 %61, label %62, label %77

62:                                               ; preds = %59
  %63 = load i32, i32* %5, align 4
  %64 = load i32, i32* %4, align 4
  %65 = sub nsw i32 %64, 1
  %66 = icmp ne i32 %63, %65
  br i1 %66, label %67, label %77

67:                                               ; preds = %62
  %68 = load i32, i32* %8, align 4
  %69 = load i32, i32* %5, align 4
  %70 = sext i32 %69 to i64
  %71 = getelementptr inbounds [100 x [100 x i32]], [100 x [100 x i32]]* %9, i64 0, i64 %70
  %72 = load i32, i32* %6, align 4
  %73 = sext i32 %72 to i64
  %74 = getelementptr inbounds [100 x i32], [100 x i32]* %71, i64 0, i64 %73
  %75 = load i32, i32* %74, align 4
  %76 = add nsw i32 %68, %75
  store i32 %76, i32* %8, align 4
  br label %77

77:                                               ; preds = %67, %62, %59, %54
  br label %78

78:                                               ; preds = %77
  %79 = load i32, i32* %6, align 4
  %80 = add nsw i32 %79, 1
  store i32 %80, i32* %6, align 4
  br label %22

81:                                               ; preds = %22
  br label %82

82:                                               ; preds = %81
  %83 = load i32, i32* %5, align 4
  %84 = add nsw i32 %83, 1
  store i32 %84, i32* %5, align 4
  br label %17

85:                                               ; preds = %17
  %86 = load i32, i32* %8, align 4
  %87 = call i32 (i8*, ...) @printf(i8* getelementptr inbounds ([4 x i8], [4 x i8]* @.str.2, i64 0, i64 0), i32 %86)
  br label %88

88:                                               ; preds = %85
  %89 = load i32, i32* %7, align 4
  %90 = add nsw i32 %89, 1
  store i32 %90, i32* %7, align 4
  br label %11

91:                                               ; preds = %11
  ret i32 0
}

declare dso_local i32 @__isoc99_scanf(i8*, ...) #1

declare dso_local i32 @printf(i8*, ...) #1


!llvm.module.flags = !{!0}
!llvm.ident = !{!1}

!0 = !{i32 1, !"wchar_size", i32 4}
!1 = !{!"clang version 10.0.0-4ubuntu1 "}
